target datalayout = "e-m:e-p270:32:32-p271:32:32-p272:64:64-i64:64-i128:128-f80:128-n8:16:32:64-S128"
target triple = "x86_64-pc-linux-gnu"

%struct.VuDev = type { i32, i32, ptr, ptr, %struct.VuDevInflightInfo, i32, %union.pthread_mutex_t, i32, i64, ptr, i64, i64, i8, i16, ptr, ptr, ptr, ptr, ptr, i32, i8 }
%struct.VuDevInflightInfo = type { i32, ptr, i64 }
%union.pthread_mutex_t = type { %struct.__pthread_mutex_s }
%struct.__pthread_mutex_s = type { i32, i32, i32, i32, i32, i16, i16, %struct.__pthread_internal_list }
%struct.__pthread_internal_list = type { ptr, ptr }
%struct.VuVirtq = type { %struct.VuRing, ptr, ptr, i16, i64, i16, i16, i16, i16, i8, i8, i32, ptr, i32, i32, i32, i32, i8, %struct.vhost_vring_addr }
%struct.VuRing = type { i32, ptr, ptr, ptr, i64, i32 }
%struct.vhost_vring_addr = type { i32, i32, i64, i64, i64, i64 }

; Function Attrs: nounwind uwtable
define dso_local void @vu_set_queue_handler(ptr noundef %0, ptr noundef %1, ptr noundef %2) #0 {
  %4 = alloca ptr, align 8
  %5 = alloca ptr, align 8
  %6 = alloca ptr, align 8
  %7 = alloca i32, align 4
  store ptr %0, ptr %4, align 8
  store ptr %1, ptr %5, align 8
  store ptr %2, ptr %6, align 8
  call void @llvm.lifetime.start.p0(i64 4, ptr %7) #13
  %8 = load ptr, ptr %5, align 8
  %9 = load ptr, ptr %4, align 8
  %10 = getelementptr inbounds nuw %struct.VuDev, ptr %9, i32 0, i32 3
  %11 = load ptr, ptr %10, align 8
  %12 = ptrtoint ptr %8 to i64
  %13 = ptrtoint ptr %11 to i64
  %14 = sub i64 %12, %13
  %15 = sdiv exact i64 %14, 168
  %16 = trunc i64 %15 to i32
  store i32 %16, ptr %7, align 4
  %17 = load ptr, ptr %6, align 8
  %18 = load ptr, ptr %5, align 8
  %19 = getelementptr inbounds nuw %struct.VuVirtq, ptr %18, i32 0, i32 12
  store ptr %17, ptr %19, align 8
  %20 = load ptr, ptr %5, align 8
  %21 = getelementptr inbounds nuw %struct.VuVirtq, ptr %20, i32 0, i32 14
  %22 = load i32, ptr %21, align 4
  %23 = icmp sge i32 %22, 0
  br i1 %23, label %24, label %47

24:                                               ; preds = %3
  %25 = load ptr, ptr %6, align 8
  %26 = icmp ne ptr %25, null
  br i1 %26, label %27, label %38

27:                                               ; preds = %24
  %28 = load ptr, ptr %4, align 8
  %29 = getelementptr inbounds nuw %struct.VuDev, ptr %28, i32 0, i32 15
  %30 = load ptr, ptr %29, align 8
  %31 = load ptr, ptr %4, align 8
  %32 = load ptr, ptr %5, align 8
  %33 = getelementptr inbounds nuw %struct.VuVirtq, ptr %32, i32 0, i32 14
  %34 = load i32, ptr %33, align 4
  %35 = load i32, ptr %7, align 4
  %36 = sext i32 %35 to i64
  %37 = inttoptr i64 %36 to ptr
  call void %30(ptr noundef %31, i32 noundef %34, i32 noundef 1, ptr noundef @vu_kick_cb, ptr noundef %37)
  br label %46

38:                                               ; preds = %24
  %39 = load ptr, ptr %4, align 8
  %40 = getelementptr inbounds nuw %struct.VuDev, ptr %39, i32 0, i32 16
  %41 = load ptr, ptr %40, align 8
  %42 = load ptr, ptr %4, align 8
  %43 = load ptr, ptr %5, align 8
  %44 = getelementptr inbounds nuw %struct.VuVirtq, ptr %43, i32 0, i32 14
  %45 = load i32, ptr %44, align 4
  call void %41(ptr noundef %42, i32 noundef %45)
  br label %46

46:                                               ; preds = %38, %27
  br label %47

47:                                               ; preds = %46, %3
  call void @llvm.lifetime.end.p0(i64 4, ptr %7) #13
  ret void
}