; Function Attrs: nounwind uwtable
define dso_local void @vu_set_queue_handler(ptr noundef %0, ptr noundef %1, ptr noundef %2) local_unnamed_addr #3 {
  %4 = getelementptr inbounds nuw i8, ptr %0, i64 16
  %5 = load ptr, ptr %4, align 8
  %6 = ptrtoint ptr %1 to i64
  %7 = ptrtoint ptr %5 to i64
  %8 = sub i64 %6, %7
  %9 = sdiv exact i64 %8, 168
  %10 = getelementptr inbounds nuw i8, ptr %1, i64 96
  store ptr %2, ptr %10, align 8
  %11 = getelementptr inbounds nuw i8, ptr %1, i64 108
  %12 = load i32, ptr %11, align 4
  %13 = icmp sgt i32 %12, -1
  br i1 %13, label %14, label %23

14:                                               ; preds = %3
  %.not = icmp eq ptr %2, null
  br i1 %.not, label %20, label %15

15:                                               ; preds = %14
  %16 = getelementptr inbounds nuw i8, ptr %0, i64 152
  %17 = load ptr, ptr %16, align 8
  %sext = shl i64 %9, 32
  %18 = ashr exact i64 %sext, 32
  %19 = inttoptr i64 %18 to ptr
  tail call void %17(ptr noundef nonnull %0, i32 noundef %12, i32 noundef 1, ptr noundef nonnull @vu_kick_cb, ptr noundef %19) #21
  br label %23

20:                                               ; preds = %14
  %21 = getelementptr inbounds nuw i8, ptr %0, i64 160
  %22 = load ptr, ptr %21, align 8
  tail call void %22(ptr noundef nonnull %0, i32 noundef %12) #21
  br label %23

23:                                               ; preds = %15, %20, %3
  ret void
}